target datalayout = "e-m:e-p270:32:32-p271:32:32-p272:64:64-i64:64-i128:128-f80:128-n8:16:32:64-S128"
target triple = "x86_64-unknown-linux-gnu"

%struct.MACAddr = type { [6 x i8] }
%struct.of_dpa_flow_key = type { i32, i32, i32, %struct.anon, %struct.anon.0, %union.anon, i32 }
%struct.anon = type { i16, %struct.MACAddr, %struct.MACAddr, i16 }
%struct.anon.0 = type { i8, i8, i8, i8 }
%union.anon = type { %struct.anon.6 }
%struct.anon.6 = type { %struct.anon.7, i32, %struct.anon.9, %struct.anon.10 }
%struct.anon.7 = type { %struct.ipv6_addr, %struct.ipv6_addr }
%struct.ipv6_addr = type { %union.anon.8 }
%union.anon.8 = type { [4 x i32] }
%struct.anon.9 = type { i16, i16, i16 }
%struct.anon.10 = type { %struct.ipv6_addr, %struct.MACAddr, %struct.MACAddr }
%struct.of_dpa_flow_action = type { i32, %struct.anon.11, %struct.anon.12 }
%struct.anon.11 = type { i32, i32, i16 }
%struct.anon.12 = type { i16, i32, i8, i16 }
%struct.anon.1 = type { %struct.anon.2, %union.anon.3 }
%struct.anon.2 = type { i32, i32 }
%union.anon.3 = type { %struct.anon.4, [6 x i8] }
%struct.anon.4 = type { i16, i16, i16 }
%struct.of_dpa_flow_context = type { i32, i32, ptr, i32, %struct.eth_header, %struct.vlan_header, %struct.vlan_header, ptr, %struct.of_dpa_flow_pkt_fields, %struct.of_dpa_flow_action }
%struct.eth_header = type { [6 x i8], [6 x i8], i16 }
%struct.vlan_header = type { i16, i16 }
%struct.of_dpa_flow_pkt_fields = type { i32, ptr, ptr, ptr, ptr, ptr, ptr, ptr }
%struct.of_dpa_flow_match = type { %struct.of_dpa_flow_key, ptr }
%struct.ip_header = type { i8, i8, i16, i16, i16, i8, i8, i16, i32, i32 }

; Function Attrs: nounwind sspstrong uwtable
define internal void @of_dpa_unicast_routing_build_match(ptr noundef %fc, ptr noundef %match) #0 {
entry:
  %fc.addr = alloca ptr, align 8
  %match.addr = alloca ptr, align 8
  store ptr %fc, ptr %fc.addr, align 8
  store ptr %match, ptr %match.addr, align 8
  %0 = load ptr, ptr %match.addr, align 8
  %value = getelementptr inbounds %struct.of_dpa_flow_match, ptr %0, i32 0, i32 0
  %tbl_id = getelementptr inbounds %struct.of_dpa_flow_key, ptr %value, i32 0, i32 2
  store i32 30, ptr %tbl_id, align 8
  %1 = load ptr, ptr %fc.addr, align 8
  %fields = getelementptr inbounds %struct.of_dpa_flow_context, ptr %1, i32 0, i32 8
  %h_proto = getelementptr inbounds %struct.of_dpa_flow_pkt_fields, ptr %fields, i32 0, i32 2
  %2 = load ptr, ptr %h_proto, align 8
  %3 = load i16, ptr %2, align 2
  %4 = load ptr, ptr %match.addr, align 8
  %value1 = getelementptr inbounds %struct.of_dpa_flow_match, ptr %4, i32 0, i32 0
  %eth = getelementptr inbounds %struct.of_dpa_flow_key, ptr %value1, i32 0, i32 3
  %type = getelementptr inbounds %struct.anon, ptr %eth, i32 0, i32 3
  store i16 %3, ptr %type, align 2
  %5 = load ptr, ptr %fc.addr, align 8
  %fields2 = getelementptr inbounds %struct.of_dpa_flow_context, ptr %5, i32 0, i32 8
  %ipv4hdr = getelementptr inbounds %struct.of_dpa_flow_pkt_fields, ptr %fields2, i32 0, i32 4
  %6 = load ptr, ptr %ipv4hdr, align 8
  %tobool = icmp ne ptr %6, null
  br i1 %tobool, label %if.then, label %if.end

if.then:                                          ; preds = %entry
  %7 = load ptr, ptr %fc.addr, align 8
  %fields3 = getelementptr inbounds %struct.of_dpa_flow_context, ptr %7, i32 0, i32 8
  %ipv4hdr4 = getelementptr inbounds %struct.of_dpa_flow_pkt_fields, ptr %fields3, i32 0, i32 4
  %8 = load ptr, ptr %ipv4hdr4, align 8
  %ip_dst = getelementptr inbounds %struct.ip_header, ptr %8, i32 0, i32 9
  %9 = load i32, ptr %ip_dst, align 4
  %10 = load ptr, ptr %match.addr, align 8
  %value5 = getelementptr inbounds %struct.of_dpa_flow_match, ptr %10, i32 0, i32 0
  %11 = getelementptr inbounds %struct.of_dpa_flow_key, ptr %value5, i32 0, i32 5
  %addr = getelementptr inbounds %struct.anon.1, ptr %11, i32 0, i32 0
  %dst = getelementptr inbounds %struct.anon.2, ptr %addr, i32 0, i32 1
  store i32 %9, ptr %dst, align 4
  br label %if.end

if.end:                                           ; preds = %if.then, %entry
  %12 = load ptr, ptr %fc.addr, align 8
  %fields6 = getelementptr inbounds %struct.of_dpa_flow_context, ptr %12, i32 0, i32 8
  %ipv6_dst_addr = getelementptr inbounds %struct.of_dpa_flow_pkt_fields, ptr %fields6, i32 0, i32 7
  %13 = load ptr, ptr %ipv6_dst_addr, align 8
  %tobool7 = icmp ne ptr %13, null
  br i1 %tobool7, label %if.then8, label %if.end14

if.then8:                                         ; preds = %if.end
  %14 = load ptr, ptr %match.addr, align 8
  %value9 = getelementptr inbounds %struct.of_dpa_flow_match, ptr %14, i32 0, i32 0
  %15 = getelementptr inbounds %struct.of_dpa_flow_key, ptr %value9, i32 0, i32 5
  %addr10 = getelementptr inbounds %struct.anon.6, ptr %15, i32 0, i32 0
  %dst11 = getelementptr inbounds %struct.anon.7, ptr %addr10, i32 0, i32 1
  %16 = load ptr, ptr %fc.addr, align 8
  %fields12 = getelementptr inbounds %struct.of_dpa_flow_context, ptr %16, i32 0, i32 8
  %ipv6_dst_addr13 = getelementptr inbounds %struct.of_dpa_flow_pkt_fields, ptr %fields12, i32 0, i32 7
  %17 = load ptr, ptr %ipv6_dst_addr13, align 8
  call void @llvm.memcpy.p0.p0.i64(ptr align 8 %dst11, ptr align 4 %17, i64 16, i1 false)
  br label %if.end14

if.end14:                                         ; preds = %if.then8, %if.end
  %18 = load ptr, ptr %match.addr, align 8
  %value15 = getelementptr inbounds %struct.of_dpa_flow_match, ptr %18, i32 0, i32 0
  %width = getelementptr inbounds %struct.of_dpa_flow_key, ptr %value15, i32 0, i32 6
  store i32 8, ptr %width, align 8
  ret void
}