; Function Attrs: mustprogress nofree norecurse nosync nounwind sspstrong willreturn memory(readwrite, inaccessiblemem: none) uwtable
define internal void @of_dpa_unicast_routing_build_match(ptr noundef readonly captures(none) %fc, ptr noundef writeonly captures(none) initializes((8, 12), (26, 28), (104, 108)) %match) #13 {
entry:
  %tbl_id = getelementptr inbounds nuw i8, ptr %match, i64 8
  store i32 30, ptr %tbl_id, align 8
  %h_proto = getelementptr inbounds nuw i8, ptr %fc, i64 72
  %0 = load ptr, ptr %h_proto, align 8
  %1 = load i16, ptr %0, align 2
  %type = getelementptr inbounds nuw i8, ptr %match, i64 26
  store i16 %1, ptr %type, align 2
  %ipv4hdr = getelementptr inbounds nuw i8, ptr %fc, i64 88
  %2 = load ptr, ptr %ipv4hdr, align 8
  %tobool.not = icmp eq ptr %2, null
  br i1 %tobool.not, label %if.end, label %if.then

if.then:                                          ; preds = %entry
  %ip_dst = getelementptr inbounds nuw i8, ptr %2, i64 16
  %3 = load i32, ptr %ip_dst, align 4
  %dst = getelementptr inbounds nuw i8, ptr %match, i64 36
  store i32 %3, ptr %dst, align 4
  br label %if.end

if.end:                                           ; preds = %if.then, %entry
  %ipv6_dst_addr = getelementptr inbounds nuw i8, ptr %fc, i64 112
  %4 = load ptr, ptr %ipv6_dst_addr, align 8
  %tobool7.not = icmp eq ptr %4, null
  br i1 %tobool7.not, label %if.end14, label %if.then8

if.then8:                                         ; preds = %if.end
  %dst11 = getelementptr inbounds nuw i8, ptr %match, i64 48
  tail call void @llvm.memcpy.p0.p0.i64(ptr noundef nonnull align 8 dereferenceable(16) %dst11, ptr noundef nonnull align 4 dereferenceable(16) %4, i64 16, i1 false)
  br label %if.end14

if.end14:                                         ; preds = %if.then8, %if.end
  %width = getelementptr inbounds nuw i8, ptr %match, i64 104
  store i32 8, ptr %width, align 8
  ret void
}